target datalayout = "e-m:e-p270:32:32-p271:32:32-p272:64:64-i64:64-i128:128-f80:128-n8:16:32:64-S128"
target triple = "x86_64-unknown-linux-gnu"

%"class.OpenImageIO_v2_6_0::simd::vbool4" = type { %union.anon.1 }
%union.anon.1 = type { <4 x float> }
%"class.OpenImageIO_v2_6_0::simd::vint4" = type { %union.anon.32 }
%union.anon.32 = type { <2 x i64> }

; Function Attrs: mustprogress nounwind uwtable
define linkonce_odr hidden void @_ZN18OpenImageIO_v2_6_04simd5vint4C2ERKDv2_x(ptr noundef nonnull align 16 dereferenceable(16) %this, ptr noundef nonnull align 16 dereferenceable(16) %m) unnamed_addr #1 comdat align 2 {
entry:
  %this.addr = alloca ptr, align 8
  %m.addr = alloca ptr, align 8
  store ptr %this, ptr %this.addr, align 8
  store ptr %m, ptr %m.addr, align 8
  %this1 = load ptr, ptr %this.addr, align 8
  %0 = getelementptr inbounds %"class.OpenImageIO_v2_6_0::simd::vint4", ptr %this1, i32 0, i32 0
  %1 = load ptr, ptr %m.addr, align 8
  %2 = load <2 x i64>, ptr %1, align 16
  store <2 x i64> %2, ptr %0, align 16
  ret void
}

; Function Attrs: mustprogress nounwind uwtable
define linkonce_odr hidden noundef <2 x i64> @_ZNK18OpenImageIO_v2_6_04simd5vint44simdEv(ptr noundef nonnull align 16 dereferenceable(16) %this) #14 comdat align 2 {
entry:
  %this.addr = alloca ptr, align 8
  store ptr %this, ptr %this.addr, align 8
  %this1 = load ptr, ptr %this.addr, align 8
  %0 = getelementptr inbounds %"class.OpenImageIO_v2_6_0::simd::vint4", ptr %this1, i32 0, i32 0
  %1 = load <2 x i64>, ptr %0, align 16
  ret <2 x i64> %1
}

; Function Attrs: mustprogress nounwind uwtable
define linkonce_odr hidden noundef <4 x float> @_ZNK18OpenImageIO_v2_6_04simd6vbool44simdEv(ptr noundef nonnull align 16 dereferenceable(16) %this) #14 comdat align 2 {
entry:
  %this.addr = alloca ptr, align 8
  store ptr %this, ptr %this.addr, align 8
  %this1 = load ptr, ptr %this.addr, align 8
  %0 = getelementptr inbounds %"class.OpenImageIO_v2_6_0::simd::vbool4", ptr %this1, i32 0, i32 0
  %1 = load <4 x float>, ptr %0, align 16
  ret <4 x float> %1
}

; Function Attrs: mustprogress nounwind uwtable
define linkonce_odr hidden void @_ZN18OpenImageIO_v2_6_04simd6vbool4C2ERKDv4_f(ptr noundef nonnull align 16 dereferenceable(16) %this, ptr noundef nonnull align 16 dereferenceable(16) %m) unnamed_addr #1 comdat align 2 {
entry:
  %this.addr = alloca ptr, align 8
  %m.addr = alloca ptr, align 8
  store ptr %this, ptr %this.addr, align 8
  store ptr %m, ptr %m.addr, align 8
  %this1 = load ptr, ptr %this.addr, align 8
  %0 = getelementptr inbounds %"class.OpenImageIO_v2_6_0::simd::vbool4", ptr %this1, i32 0, i32 0
  %1 = load ptr, ptr %m.addr, align 8
  %2 = load <4 x float>, ptr %1, align 16
  store <4 x float> %2, ptr %0, align 16
  ret void
}

; Function Attrs: mustprogress nounwind uwtable
define linkonce_odr hidden noundef <2 x i64> @_ZNK18OpenImageIO_v2_6_04simd5vint4cvDv2_xEv(ptr noundef nonnull align 16 dereferenceable(16) %this) #14 comdat align 2 {
entry:
  %this.addr = alloca ptr, align 8
  store ptr %this, ptr %this.addr, align 8
  %this1 = load ptr, ptr %this.addr, align 8
  %0 = getelementptr inbounds %"class.OpenImageIO_v2_6_0::simd::vint4", ptr %this1, i32 0, i32 0
  %1 = load <2 x i64>, ptr %0, align 16
  ret <2 x i64> %1
}

; Function Attrs: mustprogress nounwind uwtable
define linkonce_odr hidden void @_ZN18OpenImageIO_v2_6_04simd5vint4C2ERKS1_(ptr noundef nonnull align 16 dereferenceable(16) %this, ptr noundef nonnull align 16 dereferenceable(16) %other) unnamed_addr #1 comdat align 2 {
entry:
  %this.addr = alloca ptr, align 8
  %other.addr = alloca ptr, align 8
  store ptr %this, ptr %this.addr, align 8
  store ptr %other, ptr %other.addr, align 8
  %this1 = load ptr, ptr %this.addr, align 8
  %0 = load ptr, ptr %other.addr, align 8
  %1 = getelementptr inbounds %"class.OpenImageIO_v2_6_0::simd::vint4", ptr %0, i32 0, i32 0
  %2 = load <2 x i64>, ptr %1, align 16
  %3 = getelementptr inbounds %"class.OpenImageIO_v2_6_0::simd::vint4", ptr %this1, i32 0, i32 0
  store <2 x i64> %2, ptr %3, align 16
  ret void
}

; Function Attrs: mustprogress uwtable
define hidden void @_ZN18OpenImageIO_v2_6_03pvt15wrap_black_simdERNS_4simd5vint4ERKS2_S5_(ptr noalias sret(%"class.OpenImageIO_v2_6_0::simd::vbool4") align 16 %agg.result, ptr noundef nonnull align 16 dereferenceable(16) %coord_, ptr noundef nonnull align 16 dereferenceable(16) %origin, ptr noundef nonnull align 16 dereferenceable(16) %width) #6 {
entry:
  %__a.addr.i63 = alloca <2 x i64>, align 16
  %__b.addr.i64 = alloca <2 x i64>, align 16
  %__a.addr.i61 = alloca <4 x float>, align 16
  %__b.addr.i62 = alloca <4 x float>, align 16
  %__a.addr.i59 = alloca <2 x i64>, align 16
  %__b.addr.i60 = alloca <2 x i64>, align 16
  %__a.addr.i55 = alloca <2 x i64>, align 16
  %__b.addr.i56 = alloca <2 x i64>, align 16
  %__a.addr.i53 = alloca <2 x i64>, align 16
  %__b.addr.i54 = alloca <2 x i64>, align 16
  %__a.addr.i50 = alloca <2 x i64>, align 16
  %__b.addr.i51 = alloca <2 x i64>, align 16
  %__a.addr.i47 = alloca <2 x i64>, align 16
  %__b.addr.i48 = alloca <2 x i64>, align 16
  %__a.addr.i46 = alloca <2 x i64>, align 16
  %__a.addr.i45 = alloca <2 x i64>, align 16
  %__a.addr.i44 = alloca <2 x i64>, align 16
  %__a.addr.i = alloca <4 x float>, align 16
  %__b.addr.i = alloca <4 x float>, align 16
  %result.ptr.i36 = alloca ptr, align 8
  %a.addr.i37 = alloca ptr, align 8
  %b.addr.i38 = alloca ptr, align 8
  %ref.tmp.i39 = alloca <4 x float>, align 16
  %result.ptr.i29 = alloca ptr, align 8
  %a.addr.i30 = alloca ptr, align 8
  %b.addr.i31 = alloca ptr, align 8
  %ref.tmp.i32 = alloca <4 x float>, align 16
  %result.ptr.i22 = alloca ptr, align 8
  %a.addr.i23 = alloca ptr, align 8
  %b.addr.i24 = alloca ptr, align 8
  %ref.tmp.i25 = alloca <2 x i64>, align 16
  %result.ptr.i14 = alloca ptr, align 8
  %a.addr.i15 = alloca ptr, align 8
  %b.addr.i16 = alloca ptr, align 8
  %ref.tmp.i17 = alloca <4 x float>, align 16
  %result.ptr.i7 = alloca ptr, align 8
  %a.addr.i8 = alloca ptr, align 8
  %b.addr.i9 = alloca ptr, align 8
  %ref.tmp.i10 = alloca <4 x float>, align 16
  %result.ptr.i3 = alloca ptr, align 8
  %a.addr.i4 = alloca ptr, align 8
  %b.addr.i5 = alloca ptr, align 8
  %ref.tmp.i6 = alloca %"class.OpenImageIO_v2_6_0::simd::vbool4", align 16
  %ref.tmp1.i = alloca %"class.OpenImageIO_v2_6_0::simd::vbool4", align 16
  %result.ptr.i = alloca ptr, align 8
  %a.addr.i = alloca ptr, align 8
  %b.addr.i = alloca ptr, align 8
  %ref.tmp.i = alloca <4 x float>, align 16
  %result.ptr = alloca ptr, align 8
  %coord_.addr = alloca ptr, align 8
  %origin.addr = alloca ptr, align 8
  %width.addr = alloca ptr, align 8
  %coord = alloca %"class.OpenImageIO_v2_6_0::simd::vint4", align 16
  %ref.tmp = alloca %"class.OpenImageIO_v2_6_0::simd::vbool4", align 16
  %ref.tmp1 = alloca %"class.OpenImageIO_v2_6_0::simd::vbool4", align 16
  %ref.tmp2 = alloca %"class.OpenImageIO_v2_6_0::simd::vint4", align 16
  store ptr %agg.result, ptr %result.ptr, align 8
  store ptr %coord_, ptr %coord_.addr, align 8
  store ptr %origin, ptr %origin.addr, align 8
  store ptr %width, ptr %width.addr, align 8
  %0 = load ptr, ptr %coord_.addr, align 8
  call void @_ZN18OpenImageIO_v2_6_04simd5vint4C2ERKS1_(ptr noundef nonnull align 16 dereferenceable(16) %coord, ptr noundef nonnull align 16 dereferenceable(16) %0)
  %1 = load ptr, ptr %origin.addr, align 8
  call void @llvm.experimental.noalias.scope.decl(metadata !4)
  store ptr %ref.tmp, ptr %result.ptr.i3, align 8, !noalias !4
  store ptr %coord, ptr %a.addr.i4, align 8, !noalias !4
  store ptr %1, ptr %b.addr.i5, align 8, !noalias !4
  %2 = load ptr, ptr %b.addr.i5, align 8, !noalias !4
  %3 = load ptr, ptr %a.addr.i4, align 8, !noalias !4
  call void @llvm.experimental.noalias.scope.decl(metadata !7)
  store ptr %ref.tmp.i6, ptr %result.ptr.i7, align 8, !noalias !7
  store ptr %2, ptr %a.addr.i8, align 8, !noalias !7
  store ptr %3, ptr %b.addr.i9, align 8, !noalias !7
  %4 = load ptr, ptr %a.addr.i8, align 8, !noalias !7
  %call.i11 = call noundef <2 x i64> @_ZNK18OpenImageIO_v2_6_04simd5vint4cvDv2_xEv(ptr noundef nonnull align 16 dereferenceable(16) %4)
  %5 = load ptr, ptr %b.addr.i9, align 8, !noalias !7
  %call1.i12 = call noundef <2 x i64> @_ZNK18OpenImageIO_v2_6_04simd5vint4cvDv2_xEv(ptr noundef nonnull align 16 dereferenceable(16) %5)
  store <2 x i64> %call.i11, ptr %__a.addr.i50, align 16
  store <2 x i64> %call1.i12, ptr %__b.addr.i51, align 16
  %6 = load <2 x i64>, ptr %__b.addr.i51, align 16
  %7 = load <2 x i64>, ptr %__a.addr.i50, align 16
  store <2 x i64> %6, ptr %__a.addr.i53, align 16
  store <2 x i64> %7, ptr %__b.addr.i54, align 16
  %8 = load <2 x i64>, ptr %__a.addr.i53, align 16
  %9 = bitcast <2 x i64> %8 to <4 x i32>
  %10 = load <2 x i64>, ptr %__b.addr.i54, align 16
  %11 = bitcast <2 x i64> %10 to <4 x i32>
  %cmp.i = icmp sgt <4 x i32> %9, %11
  %sext.i = sext <4 x i1> %cmp.i to <4 x i32>
  %12 = bitcast <4 x i32> %sext.i to <2 x i64>
  store <2 x i64> %12, ptr %__a.addr.i46, align 16
  %13 = load <2 x i64>, ptr %__a.addr.i46, align 16
  %14 = bitcast <2 x i64> %13 to <4 x float>
  store <4 x float> %14, ptr %ref.tmp.i10, align 16, !noalias !7
  call void @_ZN18OpenImageIO_v2_6_04simd6vbool4C2ERKDv4_f(ptr noundef nonnull align 16 dereferenceable(16) %ref.tmp.i6, ptr noundef nonnull align 16 dereferenceable(16) %ref.tmp.i10)
  %15 = load ptr, ptr %a.addr.i4, align 8, !noalias !4
  %16 = load ptr, ptr %b.addr.i5, align 8, !noalias !4
  call void @llvm.experimental.noalias.scope.decl(metadata !10)
  store ptr %ref.tmp1.i, ptr %result.ptr.i36, align 8, !noalias !10
  store ptr %15, ptr %a.addr.i37, align 8, !noalias !10
  store ptr %16, ptr %b.addr.i38, align 8, !noalias !10
  %17 = load ptr, ptr %a.addr.i37, align 8, !noalias !10
  %call.i40 = call noundef <2 x i64> @_ZNK18OpenImageIO_v2_6_04simd5vint4cvDv2_xEv(ptr noundef nonnull align 16 dereferenceable(16) %17)
  %18 = load ptr, ptr %b.addr.i38, align 8, !noalias !10
  %call1.i41 = call noundef <2 x i64> @_ZNK18OpenImageIO_v2_6_04simd5vint4cvDv2_xEv(ptr noundef nonnull align 16 dereferenceable(16) %18)
  store <2 x i64> %call.i40, ptr %__a.addr.i63, align 16
  store <2 x i64> %call1.i41, ptr %__b.addr.i64, align 16
  %19 = load <2 x i64>, ptr %__a.addr.i63, align 16
  %20 = bitcast <2 x i64> %19 to <4 x i32>
  %21 = load <2 x i64>, ptr %__b.addr.i64, align 16
  %22 = bitcast <2 x i64> %21 to <4 x i32>
  %cmp.i65 = icmp eq <4 x i32> %20, %22
  %sext.i66 = sext <4 x i1> %cmp.i65 to <4 x i32>
  %23 = bitcast <4 x i32> %sext.i66 to <2 x i64>
  store <2 x i64> %23, ptr %__a.addr.i44, align 16
  %24 = load <2 x i64>, ptr %__a.addr.i44, align 16
  %25 = bitcast <2 x i64> %24 to <4 x float>
  store <4 x float> %25, ptr %ref.tmp.i39, align 16, !noalias !10
  call void @_ZN18OpenImageIO_v2_6_04simd6vbool4C2ERKDv4_f(ptr noundef nonnull align 16 dereferenceable(16) %ref.tmp1.i, ptr noundef nonnull align 16 dereferenceable(16) %ref.tmp.i39)
  call void @llvm.experimental.noalias.scope.decl(metadata !13)
  store ptr %ref.tmp, ptr %result.ptr.i29, align 8, !noalias !13
  store ptr %ref.tmp.i6, ptr %a.addr.i30, align 8, !noalias !13
  store ptr %ref.tmp1.i, ptr %b.addr.i31, align 8, !noalias !13
  %26 = load ptr, ptr %a.addr.i30, align 8, !noalias !13
  %call.i33 = call noundef <4 x float> @_ZNK18OpenImageIO_v2_6_04simd6vbool44simdEv(ptr noundef nonnull align 16 dereferenceable(16) %26)
  %27 = load ptr, ptr %b.addr.i31, align 8, !noalias !13
  %call1.i34 = call noundef <4 x float> @_ZNK18OpenImageIO_v2_6_04simd6vbool44simdEv(ptr noundef nonnull align 16 dereferenceable(16) %27)
  store <4 x float> %call.i33, ptr %__a.addr.i61, align 16
  store <4 x float> %call1.i34, ptr %__b.addr.i62, align 16
  %28 = load <4 x float>, ptr %__a.addr.i61, align 16
  %29 = bitcast <4 x float> %28 to <4 x i32>
  %30 = load <4 x float>, ptr %__b.addr.i62, align 16
  %31 = bitcast <4 x float> %30 to <4 x i32>
  %or.i = or <4 x i32> %29, %31
  %32 = bitcast <4 x i32> %or.i to <4 x float>
  store <4 x float> %32, ptr %ref.tmp.i32, align 16, !noalias !13
  call void @_ZN18OpenImageIO_v2_6_04simd6vbool4C2ERKDv4_f(ptr noundef nonnull align 16 dereferenceable(16) %ref.tmp, ptr noundef nonnull align 16 dereferenceable(16) %ref.tmp.i32)
  %33 = load ptr, ptr %width.addr, align 8
  %34 = load ptr, ptr %origin.addr, align 8
  call void @llvm.experimental.noalias.scope.decl(metadata !16)
  store ptr %ref.tmp2, ptr %result.ptr.i22, align 8, !noalias !16
  store ptr %33, ptr %a.addr.i23, align 8, !noalias !16
  store ptr %34, ptr %b.addr.i24, align 8, !noalias !16
  %35 = load ptr, ptr %a.addr.i23, align 8, !noalias !16
  %call.i26 = call noundef <2 x i64> @_ZNK18OpenImageIO_v2_6_04simd5vint44simdEv(ptr noundef nonnull align 16 dereferenceable(16) %35)
  %36 = load ptr, ptr %b.addr.i24, align 8, !noalias !16
  %call1.i27 = call noundef <2 x i64> @_ZNK18OpenImageIO_v2_6_04simd5vint44simdEv(ptr noundef nonnull align 16 dereferenceable(16) %36)
  store <2 x i64> %call.i26, ptr %__a.addr.i59, align 16
  store <2 x i64> %call1.i27, ptr %__b.addr.i60, align 16
  %37 = load <2 x i64>, ptr %__a.addr.i59, align 16
  %38 = bitcast <2 x i64> %37 to <4 x i32>
  %39 = load <2 x i64>, ptr %__b.addr.i60, align 16
  %40 = bitcast <2 x i64> %39 to <4 x i32>
  %add.i = add <4 x i32> %38, %40
  %41 = bitcast <4 x i32> %add.i to <2 x i64>
  store <2 x i64> %41, ptr %ref.tmp.i25, align 16, !noalias !16
  call void @_ZN18OpenImageIO_v2_6_04simd5vint4C2ERKDv2_x(ptr noundef nonnull align 16 dereferenceable(16) %ref.tmp2, ptr noundef nonnull align 16 dereferenceable(16) %ref.tmp.i25)
  call void @llvm.experimental.noalias.scope.decl(metadata !19)
  store ptr %ref.tmp1, ptr %result.ptr.i14, align 8, !noalias !19
  store ptr %coord, ptr %a.addr.i15, align 8, !noalias !19
  store ptr %ref.tmp2, ptr %b.addr.i16, align 8, !noalias !19
  %42 = load ptr, ptr %a.addr.i15, align 8, !noalias !19
  %call.i18 = call noundef <2 x i64> @_ZNK18OpenImageIO_v2_6_04simd5vint4cvDv2_xEv(ptr noundef nonnull align 16 dereferenceable(16) %42)
  %43 = load ptr, ptr %b.addr.i16, align 8, !noalias !19
  %call1.i19 = call noundef <2 x i64> @_ZNK18OpenImageIO_v2_6_04simd5vint4cvDv2_xEv(ptr noundef nonnull align 16 dereferenceable(16) %43)
  store <2 x i64> %call.i18, ptr %__a.addr.i47, align 16
  store <2 x i64> %call1.i19, ptr %__b.addr.i48, align 16
  %44 = load <2 x i64>, ptr %__b.addr.i48, align 16
  %45 = load <2 x i64>, ptr %__a.addr.i47, align 16
  store <2 x i64> %44, ptr %__a.addr.i55, align 16
  store <2 x i64> %45, ptr %__b.addr.i56, align 16
  %46 = load <2 x i64>, ptr %__a.addr.i55, align 16
  %47 = bitcast <2 x i64> %46 to <4 x i32>
  %48 = load <2 x i64>, ptr %__b.addr.i56, align 16
  %49 = bitcast <2 x i64> %48 to <4 x i32>
  %cmp.i57 = icmp sgt <4 x i32> %47, %49
  %sext.i58 = sext <4 x i1> %cmp.i57 to <4 x i32>
  %50 = bitcast <4 x i32> %sext.i58 to <2 x i64>
  store <2 x i64> %50, ptr %__a.addr.i45, align 16
  %51 = load <2 x i64>, ptr %__a.addr.i45, align 16
  %52 = bitcast <2 x i64> %51 to <4 x float>
  store <4 x float> %52, ptr %ref.tmp.i17, align 16, !noalias !19
  call void @_ZN18OpenImageIO_v2_6_04simd6vbool4C2ERKDv4_f(ptr noundef nonnull align 16 dereferenceable(16) %ref.tmp1, ptr noundef nonnull align 16 dereferenceable(16) %ref.tmp.i17)
  call void @llvm.experimental.noalias.scope.decl(metadata !22)
  store ptr %agg.result, ptr %result.ptr.i, align 8, !noalias !22
  store ptr %ref.tmp, ptr %a.addr.i, align 8, !noalias !22
  store ptr %ref.tmp1, ptr %b.addr.i, align 8, !noalias !22
  %53 = load ptr, ptr %a.addr.i, align 8, !noalias !22
  %call.i = call noundef <4 x float> @_ZNK18OpenImageIO_v2_6_04simd6vbool44simdEv(ptr noundef nonnull align 16 dereferenceable(16) %53)
  %54 = load ptr, ptr %b.addr.i, align 8, !noalias !22
  %call1.i = call noundef <4 x float> @_ZNK18OpenImageIO_v2_6_04simd6vbool44simdEv(ptr noundef nonnull align 16 dereferenceable(16) %54)
  store <4 x float> %call.i, ptr %__a.addr.i, align 16
  store <4 x float> %call1.i, ptr %__b.addr.i, align 16
  %55 = load <4 x float>, ptr %__a.addr.i, align 16
  %56 = bitcast <4 x float> %55 to <4 x i32>
  %57 = load <4 x float>, ptr %__b.addr.i, align 16
  %58 = bitcast <4 x float> %57 to <4 x i32>
  %and.i = and <4 x i32> %56, %58
  %59 = bitcast <4 x i32> %and.i to <4 x float>
  store <4 x float> %59, ptr %ref.tmp.i, align 16, !noalias !22
  call void @_ZN18OpenImageIO_v2_6_04simd6vbool4C2ERKDv4_f(ptr noundef nonnull align 16 dereferenceable(16) %agg.result, ptr noundef nonnull align 16 dereferenceable(16) %ref.tmp.i)
  ret void
}