; Function Attrs: mustprogress nofree norecurse nosync nounwind willreturn memory(argmem: readwrite) uwtable
define hidden void @_ZN18OpenImageIO_v2_6_03pvt15wrap_black_simdERNS_4simd5vint4ERKS2_S5_(ptr noalias nocapture writeonly sret(%"class.OpenImageIO_v2_6_0::simd::vbool4") align 16 %agg.result, ptr nocapture noundef nonnull readonly align 16 dereferenceable(16) %coord_, ptr nocapture noundef nonnull readonly align 16 dereferenceable(16) %origin, ptr nocapture noundef nonnull readonly align 16 dereferenceable(16) %width) #8 {
entry:
  %0 = load <4 x i32>, ptr %coord_, align 16
  %1 = load <4 x i32>, ptr %origin, align 16
  %or.i7 = icmp sge <4 x i32> %0, %1
  %2 = load <4 x i32>, ptr %width, align 16
  %add.i = add <4 x i32> %2, %1
  %cmp.i57 = icmp sgt <4 x i32> %add.i, %0
  %and.i8 = and <4 x i1> %cmp.i57, %or.i7
  %and.i = sext <4 x i1> %and.i8 to <4 x i32>
  store <4 x i32> %and.i, ptr %agg.result, align 16
  ret void
}